; Function Attrs: mustprogress nofree norecurse nosync nounwind memory(read, inaccessiblemem: write) uwtable
define dso_local noundef i32 @_ZNK4llvm3pdb7PDBFile16getMaxStreamSizeEv(ptr nocapture noundef nonnull readonly align 8 dereferenceable(280) %0) local_unnamed_addr #6 align 2 {
  %2 = getelementptr inbounds i8, ptr %0, i64 152
  %3 = load ptr, ptr %2, align 8
  %4 = getelementptr inbounds i8, ptr %0, i64 160
  %5 = load i64, ptr %4, align 8
  %.idx.i = shl nsw i64 %5, 2
  %6 = getelementptr inbounds i8, ptr %3, i64 %.idx.i
  %or.cond.i.i.i = icmp ult i64 %5, 2
  br i1 %or.cond.i.i.i, label %_ZN4llvm11max_elementIRKNS_8ArrayRefINS_7support6detail31packed_endian_specific_integralIjLNS_10endiannessE1ELm1ELm1EEEEEEEDaOT_.exit, label %.lr.ph.preheader.i.i.i

.lr.ph.preheader.i.i.i:                           ; preds = %1
  %7 = getelementptr inbounds i8, ptr %3, i64 4
  %.0.copyload.i.i.i.i.pre.i.i.i = load i32, ptr %3, align 1
  br label %.lr.ph.i.i.i

.lr.ph.i.i.i:                                     ; preds = %.lr.ph.i.i.i, %.lr.ph.preheader.i.i.i
  %.0.copyload.i.i.i.i.i.i.i = phi i32 [ %10, %.lr.ph.i.i.i ], [ %.0.copyload.i.i.i.i.pre.i.i.i, %.lr.ph.preheader.i.i.i ]
  %8 = phi ptr [ %11, %.lr.ph.i.i.i ], [ %7, %.lr.ph.preheader.i.i.i ]
  %.018.i.i.i = phi ptr [ %spec.select.i.i.i, %.lr.ph.i.i.i ], [ %3, %.lr.ph.preheader.i.i.i ]
  call void @llvm.assume(i1 true) [ "align"(ptr %.018.i.i.i, i64 1) ]
  call void @llvm.assume(i1 true) [ "align"(ptr %8, i64 1) ]
  %.0.copyload.i.i.i2.i.i.i.i = load i32, ptr %8, align 1
  %9 = icmp ult i32 %.0.copyload.i.i.i.i.i.i.i, %.0.copyload.i.i.i2.i.i.i.i
  %10 = tail call i32 @llvm.umax.i32(i32 %.0.copyload.i.i.i.i.i.i.i, i32 %.0.copyload.i.i.i2.i.i.i.i)
  %spec.select.i.i.i = select i1 %9, ptr %8, ptr %.018.i.i.i
  %11 = getelementptr inbounds i8, ptr %8, i64 4
  %.not.i.i.i = icmp eq ptr %11, %6
  br i1 %.not.i.i.i, label %_ZN4llvm11max_elementIRKNS_8ArrayRefINS_7support6detail31packed_endian_specific_integralIjLNS_10endiannessE1ELm1ELm1EEEEEEEDaOT_.exit, label %.lr.ph.i.i.i, !llvm.loop !6

_ZN4llvm11max_elementIRKNS_8ArrayRefINS_7support6detail31packed_endian_specific_integralIjLNS_10endiannessE1ELm1ELm1EEEEEEEDaOT_.exit: ; preds = %.lr.ph.i.i.i, %1
  %.011.i.i.i = phi ptr [ %3, %1 ], [ %spec.select.i.i.i, %.lr.ph.i.i.i ]
  call void @llvm.assume(i1 true) [ "align"(ptr %.011.i.i.i, i64 1) ]
  %.0.copyload.i.i.i = load i32, ptr %.011.i.i.i, align 1
  ret i32 %.0.copyload.i.i.i
}